target datalayout = "e-m:e-p270:32:32-p271:32:32-p272:64:64-i64:64-i128:128-f80:128-n8:16:32:64-S128"
target triple = "x86_64-pc-linux-gnu"

%struct.pos = type { [4 x [4 x i16]], [4 x i16], [4 x [4 x i8]], [4 x i32], [50 x [4 x i16]], [50 x i32], [50 x %struct.moveType], i32, i32, [4 x %struct.highCardType], [4 x %struct.highCardType] }
%struct.highCardType = type { i32, i32 }
%struct.moveType = type { i32, i32, i32, i32 }

@partner = external global [4 x i32], align 16
@bitMapRank = external global [16 x i16], align 16

; Function Attrs: mustprogress nounwind uwtable
define linkonce_odr noundef nonnull align 4 dereferenceable(4) ptr @_ZSt3maxIiERKT_S2_S2_(ptr noundef nonnull align 4 dereferenceable(4) %0, ptr noundef nonnull align 4 dereferenceable(4) %1) #5 comdat {
  %3 = alloca ptr, align 8
  %4 = alloca ptr, align 8
  %5 = alloca ptr, align 8
  store ptr %0, ptr %4, align 8
  store ptr %1, ptr %5, align 8
  %6 = load ptr, ptr %4, align 8
  %7 = load i32, ptr %6, align 4
  %8 = load ptr, ptr %5, align 8
  %9 = load i32, ptr %8, align 4
  %10 = icmp slt i32 %7, %9
  br i1 %10, label %11, label %13

11:                                               ; preds = %2
  %12 = load ptr, ptr %5, align 8
  store ptr %12, ptr %3, align 8
  br label %15

13:                                               ; preds = %2
  %14 = load ptr, ptr %4, align 8
  store ptr %14, ptr %3, align 8
  br label %15

15:                                               ; preds = %13, %11
  %16 = load ptr, ptr %3, align 8
  ret ptr %16
}

; Function Attrs: mustprogress uwtable
define noundef i32 @_Z20QtricksLeadHandTrumpiR3posiiiiiiiiiiRi(i32 noundef %0, ptr noundef nonnull align 4 dereferenceable(1544) %1, i32 noundef %2, i32 noundef %3, i32 noundef %4, i32 noundef %5, i32 noundef %6, i32 noundef %7, i32 noundef %8, i32 noundef %9, i32 noundef %10, i32 noundef %11, ptr noundef nonnull align 4 dereferenceable(4) %12) #4 {
  %14 = alloca i32, align 4
  %15 = alloca i32, align 4
  %16 = alloca ptr, align 8
  %17 = alloca i32, align 4
  %18 = alloca i32, align 4
  %19 = alloca i32, align 4
  %20 = alloca i32, align 4
  %21 = alloca i32, align 4
  %22 = alloca i32, align 4
  %23 = alloca i32, align 4
  %24 = alloca i32, align 4
  %25 = alloca i32, align 4
  %26 = alloca i32, align 4
  %27 = alloca ptr, align 8
  %28 = alloca i32, align 4
  %29 = alloca i32, align 4
  %30 = alloca i32, align 4
  store i32 %0, ptr %15, align 4
  store ptr %1, ptr %16, align 8
  store i32 %2, ptr %17, align 4
  store i32 %3, ptr %18, align 4
  store i32 %4, ptr %19, align 4
  store i32 %5, ptr %20, align 4
  store i32 %6, ptr %21, align 4
  store i32 %7, ptr %22, align 4
  store i32 %8, ptr %23, align 4
  store i32 %9, ptr %24, align 4
  store i32 %10, ptr %25, align 4
  store i32 %11, ptr %26, align 4
  store ptr %12, ptr %27, align 8
  %31 = load ptr, ptr %27, align 8
  store i32 1, ptr %31, align 4
  %32 = load i32, ptr %26, align 4
  store i32 %32, ptr %28, align 4
  %33 = load i32, ptr %19, align 4
  %34 = icmp ne i32 %33, 0
  br i1 %34, label %38, label %35

35:                                               ; preds = %13
  %36 = load i32, ptr %21, align 4
  %37 = icmp eq i32 %36, 0
  br i1 %37, label %38, label %104

38:                                               ; preds = %35, %13
  %39 = load i32, ptr %20, align 4
  %40 = icmp ne i32 %39, 0
  br i1 %40, label %44, label %41

41:                                               ; preds = %38
  %42 = load i32, ptr %22, align 4
  %43 = icmp eq i32 %42, 0
  br i1 %43, label %44, label %104

44:                                               ; preds = %41, %38
  %45 = load ptr, ptr %16, align 8
  %46 = getelementptr inbounds nuw %struct.pos, ptr %45, i32 0, i32 9
  %47 = load i32, ptr %25, align 4
  %48 = sext i32 %47 to i64
  %49 = getelementptr inbounds [4 x %struct.highCardType], ptr %46, i64 0, i64 %48
  %50 = getelementptr inbounds nuw %struct.highCardType, ptr %49, i32 0, i32 0
  %51 = load i32, ptr %50, align 4
  %52 = sext i32 %51 to i64
  %53 = getelementptr inbounds [16 x i16], ptr @bitMapRank, i64 0, i64 %52
  %54 = load i16, ptr %53, align 2
  %55 = zext i16 %54 to i32
  %56 = load ptr, ptr %16, align 8
  %57 = getelementptr inbounds nuw %struct.pos, ptr %56, i32 0, i32 4
  %58 = load i32, ptr %18, align 4
  %59 = sext i32 %58 to i64
  %60 = getelementptr inbounds [50 x [4 x i16]], ptr %57, i64 0, i64 %59
  %61 = load i32, ptr %25, align 4
  %62 = sext i32 %61 to i64
  %63 = getelementptr inbounds [4 x i16], ptr %60, i64 0, i64 %62
  %64 = load i16, ptr %63, align 2
  %65 = zext i16 %64 to i32
  %66 = or i32 %65, %55
  %67 = trunc i32 %66 to i16
  store i16 %67, ptr %63, align 2
  %68 = load i32, ptr %28, align 4
  %69 = add nsw i32 %68, 1
  store i32 %69, ptr %28, align 4
  %70 = load i32, ptr %28, align 4
  %71 = load i32, ptr %17, align 4
  %72 = icmp sge i32 %70, %71
  br i1 %72, label %73, label %75

73:                                               ; preds = %44
  %74 = load i32, ptr %28, align 4
  store i32 %74, ptr %14, align 4
  br label %266

75:                                               ; preds = %44
  %76 = load i32, ptr %19, align 4
  %77 = icmp sle i32 %76, 1
  br i1 %77, label %78, label %103

78:                                               ; preds = %75
  %79 = load i32, ptr %20, align 4
  %80 = icmp sle i32 %79, 1
  br i1 %80, label %81, label %103

81:                                               ; preds = %78
  %82 = load i32, ptr %24, align 4
  %83 = icmp sle i32 %82, 1
  br i1 %83, label %84, label %103

84:                                               ; preds = %81
  %85 = load i32, ptr %21, align 4
  %86 = icmp eq i32 %85, 0
  br i1 %86, label %87, label %103

87:                                               ; preds = %84
  %88 = load i32, ptr %22, align 4
  %89 = icmp eq i32 %88, 0
  br i1 %89, label %90, label %103

90:                                               ; preds = %87
  %91 = load i32, ptr %23, align 4
  %92 = sub nsw i32 %91, 1
  %93 = load i32, ptr %28, align 4
  %94 = add nsw i32 %93, %92
  store i32 %94, ptr %28, align 4
  %95 = load i32, ptr %28, align 4
  %96 = load i32, ptr %17, align 4
  %97 = icmp sge i32 %95, %96
  br i1 %97, label %98, label %100

98:                                               ; preds = %90
  %99 = load i32, ptr %28, align 4
  store i32 %99, ptr %14, align 4
  br label %266

100:                                              ; preds = %90
  %101 = load ptr, ptr %27, align 8
  store i32 2, ptr %101, align 4
  %102 = load i32, ptr %28, align 4
  store i32 %102, ptr %14, align 4
  br label %266

103:                                              ; preds = %87, %84, %81, %78, %75
  br label %104

104:                                              ; preds = %103, %41, %35
  %105 = load ptr, ptr %16, align 8
  %106 = getelementptr inbounds nuw %struct.pos, ptr %105, i32 0, i32 10
  %107 = load i32, ptr %25, align 4
  %108 = sext i32 %107 to i64
  %109 = getelementptr inbounds [4 x %struct.highCardType], ptr %106, i64 0, i64 %108
  %110 = getelementptr inbounds nuw %struct.highCardType, ptr %109, i32 0, i32 1
  %111 = load i32, ptr %110, align 4
  %112 = load i32, ptr %15, align 4
  %113 = icmp eq i32 %111, %112
  br i1 %113, label %114, label %175

114:                                              ; preds = %104
  %115 = load i32, ptr %21, align 4
  %116 = icmp eq i32 %115, 0
  br i1 %116, label %117, label %174

117:                                              ; preds = %114
  %118 = load i32, ptr %22, align 4
  %119 = icmp eq i32 %118, 0
  br i1 %119, label %120, label %174

120:                                              ; preds = %117
  %121 = load ptr, ptr %16, align 8
  %122 = getelementptr inbounds nuw %struct.pos, ptr %121, i32 0, i32 10
  %123 = load i32, ptr %25, align 4
  %124 = sext i32 %123 to i64
  %125 = getelementptr inbounds [4 x %struct.highCardType], ptr %122, i64 0, i64 %124
  %126 = getelementptr inbounds nuw %struct.highCardType, ptr %125, i32 0, i32 0
  %127 = load i32, ptr %126, align 4
  %128 = sext i32 %127 to i64
  %129 = getelementptr inbounds [16 x i16], ptr @bitMapRank, i64 0, i64 %128
  %130 = load i16, ptr %129, align 2
  %131 = zext i16 %130 to i32
  %132 = load ptr, ptr %16, align 8
  %133 = getelementptr inbounds nuw %struct.pos, ptr %132, i32 0, i32 4
  %134 = load i32, ptr %18, align 4
  %135 = sext i32 %134 to i64
  %136 = getelementptr inbounds [50 x [4 x i16]], ptr %133, i64 0, i64 %135
  %137 = load i32, ptr %25, align 4
  %138 = sext i32 %137 to i64
  %139 = getelementptr inbounds [4 x i16], ptr %136, i64 0, i64 %138
  %140 = load i16, ptr %139, align 2
  %141 = zext i16 %140 to i32
  %142 = or i32 %141, %131
  %143 = trunc i32 %142 to i16
  store i16 %143, ptr %139, align 2
  %144 = load i32, ptr %28, align 4
  %145 = add nsw i32 %144, 1
  store i32 %145, ptr %28, align 4
  %146 = load i32, ptr %28, align 4
  %147 = load i32, ptr %17, align 4
  %148 = icmp sge i32 %146, %147
  br i1 %148, label %149, label %151

149:                                              ; preds = %120
  %150 = load i32, ptr %28, align 4
  store i32 %150, ptr %14, align 4
  br label %266

151:                                              ; preds = %120
  %152 = load i32, ptr %19, align 4
  %153 = icmp sle i32 %152, 2
  br i1 %153, label %154, label %173

154:                                              ; preds = %151
  %155 = load i32, ptr %20, align 4
  %156 = icmp sle i32 %155, 2
  br i1 %156, label %157, label %173

157:                                              ; preds = %154
  %158 = load i32, ptr %24, align 4
  %159 = icmp sle i32 %158, 2
  br i1 %159, label %160, label %173

160:                                              ; preds = %157
  %161 = load i32, ptr %23, align 4
  %162 = sub nsw i32 %161, 2
  %163 = load i32, ptr %28, align 4
  %164 = add nsw i32 %163, %162
  store i32 %164, ptr %28, align 4
  %165 = load i32, ptr %28, align 4
  %166 = load i32, ptr %17, align 4
  %167 = icmp sge i32 %165, %166
  br i1 %167, label %168, label %170

168:                                              ; preds = %160
  %169 = load i32, ptr %28, align 4
  store i32 %169, ptr %14, align 4
  br label %266

170:                                              ; preds = %160
  %171 = load ptr, ptr %27, align 8
  store i32 2, ptr %171, align 4
  %172 = load i32, ptr %28, align 4
  store i32 %172, ptr %14, align 4
  br label %266

173:                                              ; preds = %157, %154, %151
  br label %174

174:                                              ; preds = %173, %117, %114
  br label %263

175:                                              ; preds = %104
  %176 = load ptr, ptr %16, align 8
  %177 = getelementptr inbounds nuw %struct.pos, ptr %176, i32 0, i32 10
  %178 = load i32, ptr %25, align 4
  %179 = sext i32 %178 to i64
  %180 = getelementptr inbounds [4 x %struct.highCardType], ptr %177, i64 0, i64 %179
  %181 = getelementptr inbounds nuw %struct.highCardType, ptr %180, i32 0, i32 1
  %182 = load i32, ptr %181, align 4
  %183 = load i32, ptr %15, align 4
  %184 = sext i32 %183 to i64
  %185 = getelementptr inbounds [4 x i32], ptr @partner, i64 0, i64 %184
  %186 = load i32, ptr %185, align 4
  %187 = icmp eq i32 %182, %186
  br i1 %187, label %188, label %262

188:                                              ; preds = %175
  %189 = load i32, ptr %23, align 4
  %190 = icmp sgt i32 %189, 1
  br i1 %190, label %191, label %262

191:                                              ; preds = %188
  %192 = load i32, ptr %24, align 4
  %193 = icmp sgt i32 %192, 1
  br i1 %193, label %194, label %262

194:                                              ; preds = %191
  %195 = load i32, ptr %21, align 4
  %196 = icmp eq i32 %195, 0
  br i1 %196, label %197, label %261

197:                                              ; preds = %194
  %198 = load i32, ptr %22, align 4
  %199 = icmp eq i32 %198, 0
  br i1 %199, label %200, label %261

200:                                              ; preds = %197
  %201 = load ptr, ptr %16, align 8
  %202 = getelementptr inbounds nuw %struct.pos, ptr %201, i32 0, i32 10
  %203 = load i32, ptr %25, align 4
  %204 = sext i32 %203 to i64
  %205 = getelementptr inbounds [4 x %struct.highCardType], ptr %202, i64 0, i64 %204
  %206 = getelementptr inbounds nuw %struct.highCardType, ptr %205, i32 0, i32 0
  %207 = load i32, ptr %206, align 4
  %208 = sext i32 %207 to i64
  %209 = getelementptr inbounds [16 x i16], ptr @bitMapRank, i64 0, i64 %208
  %210 = load i16, ptr %209, align 2
  %211 = zext i16 %210 to i32
  %212 = load ptr, ptr %16, align 8
  %213 = getelementptr inbounds nuw %struct.pos, ptr %212, i32 0, i32 4
  %214 = load i32, ptr %18, align 4
  %215 = sext i32 %214 to i64
  %216 = getelementptr inbounds [50 x [4 x i16]], ptr %213, i64 0, i64 %215
  %217 = load i32, ptr %25, align 4
  %218 = sext i32 %217 to i64
  %219 = getelementptr inbounds [4 x i16], ptr %216, i64 0, i64 %218
  %220 = load i16, ptr %219, align 2
  %221 = zext i16 %220 to i32
  %222 = or i32 %221, %211
  %223 = trunc i32 %222 to i16
  store i16 %223, ptr %219, align 2
  %224 = load i32, ptr %28, align 4
  %225 = add nsw i32 %224, 1
  store i32 %225, ptr %28, align 4
  %226 = load i32, ptr %28, align 4
  %227 = load i32, ptr %17, align 4
  %228 = icmp sge i32 %226, %227
  br i1 %228, label %229, label %231

229:                                              ; preds = %200
  %230 = load i32, ptr %28, align 4
  store i32 %230, ptr %14, align 4
  br label %266

231:                                              ; preds = %200
  %232 = load i32, ptr %19, align 4
  %233 = icmp sle i32 %232, 2
  br i1 %233, label %234, label %260

234:                                              ; preds = %231
  %235 = load i32, ptr %20, align 4
  %236 = icmp sle i32 %235, 2
  br i1 %236, label %237, label %260

237:                                              ; preds = %234
  %238 = load i32, ptr %24, align 4
  %239 = icmp sle i32 %238, 2
  br i1 %239, label %243, label %240

240:                                              ; preds = %237
  %241 = load i32, ptr %23, align 4
  %242 = icmp sle i32 %241, 2
  br i1 %242, label %243, label %260

243:                                              ; preds = %240, %237
  %244 = load i32, ptr %23, align 4
  %245 = sub nsw i32 %244, 2
  store i32 %245, ptr %29, align 4
  %246 = load i32, ptr %24, align 4
  %247 = sub nsw i32 %246, 2
  store i32 %247, ptr %30, align 4
  %248 = call noundef nonnull align 4 dereferenceable(4) ptr @_ZSt3maxIiERKT_S2_S2_(ptr noundef nonnull align 4 dereferenceable(4) %29, ptr noundef nonnull align 4 dereferenceable(4) %30)
  %249 = load i32, ptr %248, align 4
  %250 = load i32, ptr %28, align 4
  %251 = add nsw i32 %250, %249
  store i32 %251, ptr %28, align 4
  %252 = load i32, ptr %28, align 4
  %253 = load i32, ptr %17, align 4
  %254 = icmp sge i32 %252, %253
  br i1 %254, label %255, label %257

255:                                              ; preds = %243
  %256 = load i32, ptr %28, align 4
  store i32 %256, ptr %14, align 4
  br label %266

257:                                              ; preds = %243
  %258 = load ptr, ptr %27, align 8
  store i32 2, ptr %258, align 4
  %259 = load i32, ptr %28, align 4
  store i32 %259, ptr %14, align 4
  br label %266

260:                                              ; preds = %240, %234, %231
  br label %261

261:                                              ; preds = %260, %197, %194
  br label %262

262:                                              ; preds = %261, %191, %188, %175
  br label %263

263:                                              ; preds = %262, %174
  %264 = load ptr, ptr %27, align 8
  store i32 0, ptr %264, align 4
  %265 = load i32, ptr %28, align 4
  store i32 %265, ptr %14, align 4
  br label %266

266:                                              ; preds = %263, %257, %255, %229, %170, %168, %149, %100, %98, %73
  %267 = load i32, ptr %14, align 4
  ret i32 %267
}