; Function Attrs: mustprogress nofree norecurse nosync nounwind willreturn memory(read, argmem: readwrite, inaccessiblemem: none) uwtable
define noundef i32 @_Z20QtricksLeadHandTrumpiR3posiiiiiiiiiiRi(i32 noundef %0, ptr nocapture noundef nonnull align 4 dereferenceable(1544) %1, i32 noundef %2, i32 noundef %3, i32 noundef %4, i32 noundef %5, i32 noundef %6, i32 noundef %7, i32 noundef %8, i32 noundef %9, i32 noundef %10, i32 noundef %11, ptr nocapture noundef nonnull writeonly align 4 dereferenceable(4) %12) local_unnamed_addr #4 {
  store i32 1, ptr %12, align 4
  %14 = icmp ne i32 %4, 0
  %15 = icmp eq i32 %6, 0
  %or.cond = or i1 %14, %15
  br i1 %or.cond, label %16, label %41

16:                                               ; preds = %13
  %17 = icmp ne i32 %5, 0
  %18 = icmp eq i32 %7, 0
  %or.cond3 = or i1 %17, %18
  br i1 %or.cond3, label %19, label %41

19:                                               ; preds = %16
  %20 = getelementptr inbounds nuw i8, ptr %1, i64 1480
  %21 = sext i32 %10 to i64
  %22 = getelementptr inbounds [4 x %struct.highCardType], ptr %20, i64 0, i64 %21
  %23 = load i32, ptr %22, align 4
  %24 = sext i32 %23 to i64
  %25 = getelementptr inbounds [16 x i16], ptr @bitMapRank, i64 0, i64 %24
  %26 = load i16, ptr %25, align 2
  %27 = getelementptr inbounds nuw i8, ptr %1, i64 72
  %28 = sext i32 %3 to i64
  %29 = getelementptr inbounds [50 x [4 x i16]], ptr %27, i64 0, i64 %28, i64 %21
  %30 = load i16, ptr %29, align 2
  %31 = or i16 %30, %26
  store i16 %31, ptr %29, align 2
  %32 = add nsw i32 %11, 1
  %.not = icmp slt i32 %32, %2
  br i1 %.not, label %33, label %97

33:                                               ; preds = %19
  %34 = icmp slt i32 %4, 2
  %35 = icmp slt i32 %5, 2
  %or.cond5 = and i1 %34, %35
  %36 = icmp slt i32 %9, 2
  %or.cond7 = and i1 %or.cond5, %36
  %37 = or i32 %7, %6
  %38 = icmp eq i32 %37, 0
  %or.cond11 = and i1 %38, %or.cond7
  br i1 %or.cond11, label %39, label %41

39:                                               ; preds = %33
  %40 = add i32 %11, %8
  %.not131 = icmp slt i32 %40, %2
  br i1 %.not131, label %.sink.split, label %97

41:                                               ; preds = %33, %16, %13
  %.0 = phi i32 [ %32, %33 ], [ %11, %16 ], [ %11, %13 ]
  %42 = getelementptr inbounds nuw i8, ptr %1, i64 1512
  %43 = sext i32 %10 to i64
  %44 = getelementptr inbounds [4 x %struct.highCardType], ptr %42, i64 0, i64 %43
  %45 = getelementptr inbounds nuw i8, ptr %44, i64 4
  %46 = load i32, ptr %45, align 4
  %47 = icmp eq i32 %46, %0
  br i1 %47, label %48, label %68

48:                                               ; preds = %41
  %49 = or i32 %7, %6
  %or.cond13 = icmp eq i32 %49, 0
  br i1 %or.cond13, label %50, label %.sink.split

50:                                               ; preds = %48
  %51 = load i32, ptr %44, align 4
  %52 = sext i32 %51 to i64
  %53 = getelementptr inbounds [16 x i16], ptr @bitMapRank, i64 0, i64 %52
  %54 = load i16, ptr %53, align 2
  %55 = getelementptr inbounds nuw i8, ptr %1, i64 72
  %56 = sext i32 %3 to i64
  %57 = getelementptr inbounds [50 x [4 x i16]], ptr %55, i64 0, i64 %56, i64 %43
  %58 = load i16, ptr %57, align 2
  %59 = or i16 %58, %54
  store i16 %59, ptr %57, align 2
  %60 = add nsw i32 %.0, 1
  %.not129 = icmp slt i32 %60, %2
  br i1 %.not129, label %61, label %97

61:                                               ; preds = %50
  %62 = icmp slt i32 %4, 3
  %63 = icmp slt i32 %5, 3
  %or.cond15 = and i1 %62, %63
  %64 = icmp slt i32 %9, 3
  %or.cond17 = and i1 %or.cond15, %64
  br i1 %or.cond17, label %65, label %.sink.split

65:                                               ; preds = %61
  %66 = add nsw i32 %8, -2
  %67 = add nsw i32 %66, %60
  %.not130 = icmp slt i32 %67, %2
  br i1 %.not130, label %.sink.split, label %97

68:                                               ; preds = %41
  %69 = sext i32 %0 to i64
  %70 = getelementptr inbounds [4 x i32], ptr @partner, i64 0, i64 %69
  %71 = load i32, ptr %70, align 4
  %72 = icmp eq i32 %46, %71
  %73 = icmp sgt i32 %8, 1
  %or.cond19 = and i1 %73, %72
  %74 = icmp sgt i32 %9, 1
  %or.cond21 = and i1 %74, %or.cond19
  %75 = or i32 %7, %6
  %or.cond23 = icmp eq i32 %75, 0
  %or.cond132 = and i1 %or.cond23, %or.cond21
  br i1 %or.cond132, label %76, label %.sink.split

76:                                               ; preds = %68
  %77 = load i32, ptr %44, align 4
  %78 = sext i32 %77 to i64
  %79 = getelementptr inbounds [16 x i16], ptr @bitMapRank, i64 0, i64 %78
  %80 = load i16, ptr %79, align 2
  %81 = getelementptr inbounds nuw i8, ptr %1, i64 72
  %82 = sext i32 %3 to i64
  %83 = getelementptr inbounds [50 x [4 x i16]], ptr %81, i64 0, i64 %82, i64 %43
  %84 = load i16, ptr %83, align 2
  %85 = or i16 %84, %80
  store i16 %85, ptr %83, align 2
  %86 = add nsw i32 %.0, 1
  %.not127 = icmp slt i32 %86, %2
  br i1 %.not127, label %87, label %97

87:                                               ; preds = %76
  %88 = icmp slt i32 %4, 3
  %89 = icmp slt i32 %5, 3
  %or.cond25 = and i1 %88, %89
  br i1 %or.cond25, label %90, label %.sink.split

90:                                               ; preds = %87
  %91 = icmp ult i32 %9, 3
  %92 = icmp ult i32 %8, 3
  %or.cond27 = or i1 %92, %91
  br i1 %or.cond27, label %93, label %.sink.split

93:                                               ; preds = %90
  %94 = add nsw i32 %8, -2
  %95 = add nsw i32 %9, -2
  %.sroa.speculated = tail call i32 @llvm.umax.i32(i32 %94, i32 %95)
  %96 = add nsw i32 %86, %.sroa.speculated
  %.not128 = icmp slt i32 %96, %2
  br i1 %.not128, label %.sink.split, label %97

.sink.split:                                      ; preds = %61, %48, %90, %87, %68, %93, %65, %39
  %.sink = phi i32 [ 2, %39 ], [ 2, %65 ], [ 2, %93 ], [ 0, %68 ], [ 0, %87 ], [ 0, %90 ], [ 0, %48 ], [ 0, %61 ]
  %.0108.ph = phi i32 [ %40, %39 ], [ %67, %65 ], [ %96, %93 ], [ %.0, %68 ], [ %86, %87 ], [ %86, %90 ], [ %.0, %48 ], [ %60, %61 ]
  store i32 %.sink, ptr %12, align 4
  br label %97

97:                                               ; preds = %.sink.split, %93, %76, %65, %50, %39, %19
  %.0108 = phi i32 [ %32, %19 ], [ %40, %39 ], [ %60, %50 ], [ %67, %65 ], [ %86, %76 ], [ %96, %93 ], [ %.0108.ph, %.sink.split ]
  ret i32 %.0108
}